; Function Attrs: nounwind uwtable
define void @glfwRequestWindowAttention(ptr noundef %0) local_unnamed_addr #0 {
  %2 = load i32, ptr @_glfw, align 8, !tbaa !138
  %.not = icmp eq i32 %2, 0
  br i1 %.not, label %3, label %4

3:                                                ; preds = %1
  tail call void (i32, ptr, ...) @_glfwInputError(i32 noundef 65537, ptr noundef null) #7
  br label %6

4:                                                ; preds = %1
  %5 = load ptr, ptr getelementptr inbounds nuw (i8, ptr @_glfw, i64 416), align 8, !tbaa !251
  tail call void %5(ptr noundef %0) #7
  br label %6

6:                                                ; preds = %4, %3
  ret void
}